; Function Attrs: mustprogress nofree norecurse nosync nounwind willreturn memory(argmem: readwrite) uwtable
define void @_ZN4YAML6detail9node_data14reset_sequenceEv(ptr nocapture noundef nonnull align 8 dereferenceable(176) %this) local_unnamed_addr #5 align 2 personality ptr @__gxx_personality_v0 {
entry:
  %m_sequence = getelementptr inbounds i8, ptr %this, i64 96
  %0 = load ptr, ptr %m_sequence, align 8
  %_M_finish.i.i = getelementptr inbounds i8, ptr %this, i64 104
  %1 = load ptr, ptr %_M_finish.i.i, align 8
  %tobool.not.i.i = icmp eq ptr %1, %0
  br i1 %tobool.not.i.i, label %_ZNSt6vectorIPN4YAML6detail4nodeESaIS3_EE5clearEv.exit, label %invoke.cont.i.i

invoke.cont.i.i:                                  ; preds = %entry
  store ptr %0, ptr %_M_finish.i.i, align 8
  br label %_ZNSt6vectorIPN4YAML6detail4nodeESaIS3_EE5clearEv.exit

_ZNSt6vectorIPN4YAML6detail4nodeESaIS3_EE5clearEv.exit: ; preds = %entry, %invoke.cont.i.i
  %m_seqSize = getelementptr inbounds i8, ptr %this, i64 120
  store i64 0, ptr %m_seqSize, align 8
  ret void
}